target datalayout = "e-m:e-p270:32:32-p271:32:32-p272:64:64-i64:64-i128:128-f80:128-n8:16:32:64-S128"
target triple = "x86_64-pc-linux-gnu"

@.str = private unnamed_addr constant [132 x i8] c"generated/home/dtcxzyw/WorkSpace/Projects/compilers/llvm-opt-benchmark/bench/abseil-cpp/abseil-cpp/absl/debugging/symbolize_elf.inc\00", align 1
@.str.5 = private unnamed_addr constant [22 x i8] c"read failed: errno=%d\00", align 1

; Function Attrs: mustprogress uwtable
define internal noundef i64 @_ZN4absl18debugging_internalL14ReadPersistentEiPvm(i32 noundef %0, ptr noundef %1, i64 noundef %2) #0 {
  %4 = alloca i64, align 8
  %5 = alloca i32, align 4
  %6 = alloca ptr, align 8
  %7 = alloca i64, align 8
  %8 = alloca ptr, align 8
  %9 = alloca i64, align 8
  %10 = alloca i64, align 8
  %11 = alloca ptr, align 8
  %12 = alloca i32, align 4
  store i32 %0, ptr %5, align 4, !tbaa !10
  store ptr %1, ptr %6, align 8, !tbaa !36
  store i64 %2, ptr %7, align 8, !tbaa !20
  %13 = load i32, ptr %5, align 4, !tbaa !10
  %14 = icmp sge i32 %13, 0
  br i1 %14, label %15, label %16

15:                                               ; preds = %3
  br label %18

16:                                               ; preds = %3
  call void @abort() #24
  unreachable

17:                                               ; No predecessors!
  br label %18

18:                                               ; preds = %17, %15
  %19 = load i64, ptr %7, align 8, !tbaa !20
  %20 = icmp ule i64 %19, 9223372036854775807
  br i1 %20, label %21, label %22

21:                                               ; preds = %18
  br label %24

22:                                               ; preds = %18
  call void @abort() #24
  unreachable

23:                                               ; No predecessors!
  br label %24

24:                                               ; preds = %23, %21
  call void @llvm.lifetime.start.p0(i64 8, ptr %8) #17
  %25 = load ptr, ptr %6, align 8, !tbaa !36
  store ptr %25, ptr %8, align 8, !tbaa !4
  call void @llvm.lifetime.start.p0(i64 8, ptr %9) #17
  store i64 0, ptr %9, align 8, !tbaa !20
  br label %26

26:                                               ; preds = %67, %24
  %27 = load i64, ptr %9, align 8, !tbaa !20
  %28 = load i64, ptr %7, align 8, !tbaa !20
  %29 = icmp ult i64 %27, %28
  br i1 %29, label %30, label %68

30:                                               ; preds = %26
  call void @llvm.lifetime.start.p0(i64 8, ptr %10) #17
  br label %31

31:                                               ; preds = %46, %30
  br label %32

32:                                               ; preds = %31
  %33 = load i32, ptr %5, align 4, !tbaa !10
  %34 = load ptr, ptr %8, align 8, !tbaa !4
  %35 = load i64, ptr %9, align 8, !tbaa !20
  %36 = getelementptr inbounds nuw i8, ptr %34, i64 %35
  %37 = load i64, ptr %7, align 8, !tbaa !20
  %38 = load i64, ptr %9, align 8, !tbaa !20
  %39 = sub i64 %37, %38
  %40 = call i64 @read(i32 noundef %33, ptr noundef %36, i64 noundef %39)
  store i64 %40, ptr %10, align 8, !tbaa !20
  %41 = icmp slt i64 %40, 0
  br i1 %41, label %42, label %46

42:                                               ; preds = %32
  %43 = call ptr @__errno_location() #21
  %44 = load i32, ptr %43, align 4, !tbaa !10
  %45 = icmp eq i32 %44, 4
  br label %46

46:                                               ; preds = %42, %32
  %47 = phi i1 [ false, %32 ], [ %45, %42 ]
  br i1 %47, label %31, label %48, !llvm.loop !177

48:                                               ; preds = %46
  %49 = load i64, ptr %10, align 8, !tbaa !20
  %50 = icmp slt i64 %49, 0
  br i1 %50, label %51, label %57

51:                                               ; preds = %48
  br label %52

52:                                               ; preds = %51
  call void @llvm.lifetime.start.p0(i64 8, ptr %11) #17
  store ptr getelementptr (i8, ptr @.str, i64 114), ptr %11, align 8, !tbaa !4
  %53 = call ptr @__errno_location() #21
  %54 = load i32, ptr %53, align 4, !tbaa !10
  call void (i32, ptr, i32, ptr, ...) @_ZN4absl16raw_log_internal6RawLogENS_11LogSeverityEPKciS3_z(i32 noundef 1, ptr noundef getelementptr (i8, ptr @.str, i64 114), i32 noundef 494, ptr noundef @.str.5, i32 noundef %54)
  call void @llvm.lifetime.end.p0(i64 8, ptr %11) #17
  br label %55

55:                                               ; preds = %52
  br label %56

56:                                               ; preds = %55
  store i64 -1, ptr %4, align 8
  store i32 1, ptr %12, align 4
  br label %65

57:                                               ; preds = %48
  %58 = load i64, ptr %10, align 8, !tbaa !20
  %59 = icmp eq i64 %58, 0
  br i1 %59, label %60, label %61

60:                                               ; preds = %57
  store i32 3, ptr %12, align 4
  br label %65

61:                                               ; preds = %57
  %62 = load i64, ptr %10, align 8, !tbaa !20
  %63 = load i64, ptr %9, align 8, !tbaa !20
  %64 = add i64 %63, %62
  store i64 %64, ptr %9, align 8, !tbaa !20
  store i32 0, ptr %12, align 4
  br label %65

65:                                               ; preds = %61, %60, %56
  call void @llvm.lifetime.end.p0(i64 8, ptr %10) #17
  %66 = load i32, ptr %12, align 4
  switch i32 %66, label %77 [
    i32 0, label %67
    i32 3, label %68
  ]

67:                                               ; preds = %65
  br label %26, !llvm.loop !178

68:                                               ; preds = %65, %26
  %69 = load i64, ptr %9, align 8, !tbaa !20
  %70 = load i64, ptr %7, align 8, !tbaa !20
  %71 = icmp ule i64 %69, %70
  br i1 %71, label %72, label %73

72:                                               ; preds = %68
  br label %75

73:                                               ; preds = %68
  call void @abort() #24
  unreachable

74:                                               ; No predecessors!
  br label %75

75:                                               ; preds = %74, %72
  %76 = load i64, ptr %9, align 8, !tbaa !20
  store i64 %76, ptr %4, align 8
  store i32 1, ptr %12, align 4
  br label %77

77:                                               ; preds = %75, %65
  call void @llvm.lifetime.end.p0(i64 8, ptr %9) #17
  call void @llvm.lifetime.end.p0(i64 8, ptr %8) #17
  %78 = load i64, ptr %4, align 8
  ret i64 %78
}