; Function Attrs: mustprogress uwtable
define internal fastcc noundef i64 @_ZN4absl18debugging_internalL14ReadPersistentEiPvm(i32 noundef %0, ptr noundef captures(none) %1, i64 noundef %2) unnamed_addr #0 {
  %4 = icmp sgt i32 %0, -1
  br i1 %4, label %6, label %5

5:                                                ; preds = %3
  tail call void @abort() #29
  unreachable

6:                                                ; preds = %3
  %7 = icmp sgt i64 %2, -1
  br i1 %7, label %.preheader32, label %8

8:                                                ; preds = %6
  tail call void @abort() #29
  unreachable

.preheader32:                                     ; preds = %6, %.critedge25
  %.019 = phi i64 [ %20, %.critedge25 ], [ 0, %6 ]
  %9 = icmp ult i64 %.019, %2
  br i1 %9, label %.preheader, label %.thread29

.preheader:                                       ; preds = %.preheader32
  %10 = getelementptr inbounds nuw i8, ptr %1, i64 %.019
  %11 = sub nuw nsw i64 %2, %.019
  br label %12

12:                                               ; preds = %.preheader, %15
  %13 = tail call i64 @read(i32 noundef %0, ptr noundef %10, i64 noundef %11)
  %14 = icmp slt i64 %13, 0
  br i1 %14, label %15, label %.critedge25

15:                                               ; preds = %12
  %16 = tail call ptr @__errno_location() #25
  %17 = load i32, ptr %16, align 4, !tbaa !10
  %18 = icmp eq i32 %17, 4
  br i1 %18, label %12, label %.thread, !llvm.loop !114

.thread:                                          ; preds = %15
  tail call void (i32, ptr, i32, ptr, ...) @_ZN4absl16raw_log_internal6RawLogENS_11LogSeverityEPKciS3_z(i32 noundef 1, ptr noundef nonnull getelementptr inbounds nuw (i8, ptr @.str, i64 114), i32 noundef 494, ptr noundef nonnull @.str.5, i32 noundef %17)
  br label %22

.critedge25:                                      ; preds = %12
  %19 = icmp eq i64 %13, 0
  %20 = add nuw i64 %13, %.019
  br i1 %19, label %.thread29, label %.preheader32

.thread29:                                        ; preds = %.critedge25, %.preheader32
  %.120 = phi i64 [ %.019, %.preheader32 ], [ %20, %.critedge25 ]
  %.not = icmp ugt i64 %.120, %2
  br i1 %.not, label %21, label %22

21:                                               ; preds = %.thread29
  tail call void @abort() #29
  unreachable

22:                                               ; preds = %.thread, %.thread29
  %.2 = phi i64 [ %.120, %.thread29 ], [ -1, %.thread ]
  ret i64 %.2
}